; Function Attrs: nofree norecurse nosync nounwind memory(readwrite, inaccessiblemem: none) uwtable
define void @Gia_ManAddNextEntry_rec(ptr noundef readonly captures(none) %0, ptr noundef %1, ptr noundef %2) local_unnamed_addr #3 {
  %4 = getelementptr i8, ptr %0, i64 32
  %.val15 = load ptr, ptr %4, align 8, !tbaa !36
  %5 = ptrtoint ptr %.val15 to i64
  %6 = getelementptr i8, ptr %0, i64 200
  %.val16 = load ptr, ptr %6, align 8, !tbaa !54
  %7 = ptrtoint ptr %1 to i64
  %8 = sub i64 %7, %5
  %9 = sdiv exact i64 %8, 12
  %sext22 = shl i64 %9, 32
  %10 = ashr exact i64 %sext22, 30
  %11 = getelementptr inbounds i8, ptr %.val16, i64 %10
  %12 = load i32, ptr %11, align 4, !tbaa !32
  %13 = icmp eq i32 %12, 0
  br i1 %13, label %tailrecurse._crit_edge, label %Gia_ObjNextObj.exit

tailrecurse._crit_edge:                           ; preds = %Gia_ObjNextObj.exit, %3
  %.lcssa21 = phi i64 [ %10, %3 ], [ %21, %Gia_ObjNextObj.exit ]
  %14 = getelementptr inbounds i8, ptr %.val16, i64 %.lcssa21
  %15 = ptrtoint ptr %2 to i64
  %16 = sub i64 %15, %5
  %17 = sdiv exact i64 %16, 12
  %18 = trunc i64 %17 to i32
  store i32 %18, ptr %14, align 4, !tbaa !32
  ret void

Gia_ObjNextObj.exit:                              ; preds = %3, %Gia_ObjNextObj.exit
  %19 = phi i32 [ %23, %Gia_ObjNextObj.exit ], [ %12, %3 ]
  %20 = zext i32 %19 to i64
  %sext = shl nuw i64 %20, 32
  %21 = ashr exact i64 %sext, 30
  %22 = getelementptr inbounds i8, ptr %.val16, i64 %21
  %23 = load i32, ptr %22, align 4, !tbaa !32
  %24 = icmp eq i32 %23, 0
  br i1 %24, label %tailrecurse._crit_edge, label %Gia_ObjNextObj.exit
}